target datalayout = "e-m:e-p270:32:32-p271:32:32-p272:64:64-i64:64-i128:128-f80:128-n8:16:32:64-S128"
target triple = "x86_64-pc-linux-gnu"

%struct.ScanKeyData = type { i32, i16, i16, i32, i32, %struct.FmgrInfo, i64 }
%struct.FmgrInfo = type { ptr, i32, i16, i8, i8, i8, ptr, ptr, ptr }
%struct.nameData = type { [64 x i8] }
%struct.FormData_pg_trigger = type { i32, i32, i32, %struct.nameData, i32, i16, i8, i8, i32, i32, i32, i8, i8, i16, %struct.int2vector }
%struct.int2vector = type { i32, i32, i32, i32, i32, i32, [0 x i16] }
%struct.HeapTupleData = type { i32, %struct.ItemPointerData, i32, ptr }
%struct.ItemPointerData = type { %struct.BlockIdData, i16 }
%struct.BlockIdData = type { i16, i16 }
%struct.HeapTupleHeaderData = type { %union.anon, %struct.ItemPointerData, i16, i16, i8, [0 x i8] }
%union.anon = type { %struct.HeapTupleFields }
%struct.HeapTupleFields = type { i32, i32, %union.anon.1 }
%union.anon.1 = type { i32 }

@.str.2 = private unnamed_addr constant [10 x i8] c"trigger.c\00", align 1
@.str.57 = private unnamed_addr constant [43 x i8] c"trigger \22%s\22 for table \22%s\22 does not exist\00", align 1
@__func__.get_trigger_oid = private unnamed_addr constant [16 x i8] c"get_trigger_oid\00", align 1

; Function Attrs: inlinehint nounwind uwtable
define internal i64 @PointerGetDatum(ptr noundef %0) #7 {
  %2 = alloca ptr, align 8
  store ptr %0, ptr %2, align 8
  %3 = load ptr, ptr %2, align 8
  %4 = ptrtoint ptr %3 to i64
  ret i64 %4
}

; Function Attrs: inlinehint nounwind uwtable
define internal ptr @GETSTRUCT(ptr noundef %0) #7 {
  %2 = alloca ptr, align 8
  store ptr %0, ptr %2, align 8
  %3 = load ptr, ptr %2, align 8
  %4 = getelementptr inbounds nuw %struct.HeapTupleData, ptr %3, i32 0, i32 3
  %5 = load ptr, ptr %4, align 8
  %6 = load ptr, ptr %2, align 8
  %7 = getelementptr inbounds nuw %struct.HeapTupleData, ptr %6, i32 0, i32 3
  %8 = load ptr, ptr %7, align 8
  %9 = getelementptr inbounds nuw %struct.HeapTupleHeaderData, ptr %8, i32 0, i32 4
  %10 = load i8, ptr %9, align 2
  %11 = zext i8 %10 to i32
  %12 = sext i32 %11 to i64
  %13 = getelementptr inbounds i8, ptr %5, i64 %12
  ret ptr %13
}

; Function Attrs: inlinehint nounwind uwtable
define internal i64 @CStringGetDatum(ptr noundef %0) #7 {
  %2 = alloca ptr, align 8
  store ptr %0, ptr %2, align 8
  %3 = load ptr, ptr %2, align 8
  %4 = call i64 @PointerGetDatum(ptr noundef %3)
  ret i64 %4
}

; Function Attrs: inlinehint nounwind uwtable
define internal i64 @ObjectIdGetDatum(i32 noundef %0) #7 {
  %2 = alloca i32, align 4
  store i32 %0, ptr %2, align 4
  %3 = load i32, ptr %2, align 4
  %4 = zext i32 %3 to i64
  ret i64 %4
}

; Function Attrs: nounwind uwtable
define dso_local i32 @get_trigger_oid(i32 noundef %0, ptr noundef %1, i1 noundef zeroext %2) #0 {
  %4 = alloca i32, align 4
  %5 = alloca ptr, align 8
  %6 = alloca i8, align 1
  %7 = alloca ptr, align 8
  %8 = alloca [2 x %struct.ScanKeyData], align 16
  %9 = alloca ptr, align 8
  %10 = alloca ptr, align 8
  %11 = alloca i32, align 4
  store i32 %0, ptr %4, align 4
  store ptr %1, ptr %5, align 8
  %12 = zext i1 %2 to i8
  store i8 %12, ptr %6, align 1
  call void @llvm.lifetime.start.p0(i64 8, ptr %7) #12
  call void @llvm.lifetime.start.p0(i64 144, ptr %8) #12
  call void @llvm.lifetime.start.p0(i64 8, ptr %9) #12
  call void @llvm.lifetime.start.p0(i64 8, ptr %10) #12
  call void @llvm.lifetime.start.p0(i64 4, ptr %11) #12
  %13 = call ptr @table_open(i32 noundef 2620, i32 noundef 1)
  store ptr %13, ptr %7, align 8
  %14 = getelementptr inbounds [2 x %struct.ScanKeyData], ptr %8, i64 0, i64 0
  %15 = load i32, ptr %4, align 4
  %16 = call i64 @ObjectIdGetDatum(i32 noundef %15)
  call void @ScanKeyInit(ptr noundef %14, i16 noundef signext 2, i16 noundef zeroext 3, i32 noundef 184, i64 noundef %16)
  %17 = getelementptr inbounds [2 x %struct.ScanKeyData], ptr %8, i64 0, i64 1
  %18 = load ptr, ptr %5, align 8
  %19 = call i64 @CStringGetDatum(ptr noundef %18)
  call void @ScanKeyInit(ptr noundef %17, i16 noundef signext 4, i16 noundef zeroext 3, i32 noundef 62, i64 noundef %19)
  %20 = load ptr, ptr %7, align 8
  %21 = getelementptr inbounds [2 x %struct.ScanKeyData], ptr %8, i64 0, i64 0
  %22 = call ptr @systable_beginscan(ptr noundef %20, i32 noundef 2701, i1 noundef zeroext true, ptr noundef null, i32 noundef 2, ptr noundef %21)
  store ptr %22, ptr %9, align 8
  %23 = load ptr, ptr %9, align 8
  %24 = call ptr @systable_getnext(ptr noundef %23)
  store ptr %24, ptr %10, align 8
  %25 = load ptr, ptr %10, align 8
  %26 = icmp ne ptr %25, null
  br i1 %26, label %46, label %27

27:                                               ; preds = %3
  %28 = load i8, ptr %6, align 1, !range !4, !noundef !5
  %29 = trunc i8 %28 to i1
  br i1 %29, label %45, label %30

30:                                               ; preds = %27
  br label %31

31:                                               ; preds = %30
  br i1 true, label %32, label %34

32:                                               ; preds = %31
  %33 = call zeroext i1 @errstart_cold(i32 noundef 21, ptr noundef null) #13
  br i1 %33, label %36, label %42

34:                                               ; preds = %31
  %35 = call zeroext i1 @errstart(i32 noundef 21, ptr noundef null)
  br i1 %35, label %36, label %42

36:                                               ; preds = %34, %32
  %37 = call i32 @errcode(i32 noundef 67137668)
  %38 = load ptr, ptr %5, align 8
  %39 = load i32, ptr %4, align 4
  %40 = call ptr @get_rel_name(i32 noundef %39)
  %41 = call i32 (ptr, ...) @errmsg(ptr noundef @.str.57, ptr noundef %38, ptr noundef %40)
  call void @errfinish(ptr noundef @.str.2, i32 noundef 1403, ptr noundef @__func__.get_trigger_oid)
  br label %42

42:                                               ; preds = %36, %34, %32
  unreachable

43:                                               ; No predecessors!
  br label %44

44:                                               ; preds = %43
  br label %45

45:                                               ; preds = %44, %27
  store i32 0, ptr %11, align 4
  br label %51

46:                                               ; preds = %3
  %47 = load ptr, ptr %10, align 8
  %48 = call ptr @GETSTRUCT(ptr noundef %47)
  %49 = getelementptr inbounds nuw %struct.FormData_pg_trigger, ptr %48, i32 0, i32 0
  %50 = load i32, ptr %49, align 4
  store i32 %50, ptr %11, align 4
  br label %51

51:                                               ; preds = %46, %45
  %52 = load ptr, ptr %9, align 8
  call void @systable_endscan(ptr noundef %52)
  %53 = load ptr, ptr %7, align 8
  call void @table_close(ptr noundef %53, i32 noundef 1)
  %54 = load i32, ptr %11, align 4
  call void @llvm.lifetime.end.p0(i64 4, ptr %11) #12
  call void @llvm.lifetime.end.p0(i64 8, ptr %10) #12
  call void @llvm.lifetime.end.p0(i64 8, ptr %9) #12
  call void @llvm.lifetime.end.p0(i64 144, ptr %8) #12
  call void @llvm.lifetime.end.p0(i64 8, ptr %7) #12
  ret i32 %54
}