; Function Attrs: nounwind uwtable
define dso_local i32 @get_trigger_oid(i32 noundef %0, ptr noundef %1, i1 noundef zeroext %2) local_unnamed_addr #0 {
  %4 = alloca [2 x %struct.ScanKeyData], align 16
  call void @llvm.lifetime.start.p0(i64 144, ptr nonnull %4) #16
  %5 = tail call ptr @table_open(i32 noundef 2620, i32 noundef 1) #16
  %6 = zext i32 %0 to i64
  call void @ScanKeyInit(ptr noundef nonnull %4, i16 noundef signext 2, i16 noundef zeroext 3, i32 noundef 184, i64 noundef %6) #16
  %7 = getelementptr inbounds nuw i8, ptr %4, i64 72
  %8 = ptrtoint ptr %1 to i64
  call void @ScanKeyInit(ptr noundef nonnull %7, i16 noundef signext 4, i16 noundef zeroext 3, i32 noundef 62, i64 noundef %8) #16
  %9 = call ptr @systable_beginscan(ptr noundef %5, i32 noundef 2701, i1 noundef zeroext true, ptr noundef null, i32 noundef 2, ptr noundef nonnull %4) #16
  %10 = call ptr @systable_getnext(ptr noundef %9) #16
  %.not = icmp eq ptr %10, null
  br i1 %.not, label %11, label %17

11:                                               ; preds = %3
  br i1 %2, label %24, label %12

12:                                               ; preds = %11
  %13 = call zeroext i1 @errstart_cold(i32 noundef 21, ptr noundef null) #17
  call void @llvm.assume(i1 %13)
  %14 = call i32 @errcode(i32 noundef 67137668) #16
  %15 = call ptr @get_rel_name(i32 noundef %0) #16
  %16 = call i32 (ptr, ...) @errmsg(ptr noundef nonnull @.str.57, ptr noundef %1, ptr noundef %15) #16
  call void @errfinish(ptr noundef nonnull @.str.2, i32 noundef 1403, ptr noundef nonnull @__func__.get_trigger_oid) #16
  unreachable

17:                                               ; preds = %3
  %18 = getelementptr i8, ptr %10, i64 16
  %.val = load ptr, ptr %18, align 8
  %19 = getelementptr inbounds nuw i8, ptr %.val, i64 22
  %20 = load i8, ptr %19, align 2
  %21 = zext i8 %20 to i64
  %22 = getelementptr inbounds nuw i8, ptr %.val, i64 %21
  %23 = load i32, ptr %22, align 4
  br label %24

24:                                               ; preds = %11, %17
  %.0 = phi i32 [ %23, %17 ], [ 0, %11 ]
  call void @systable_endscan(ptr noundef %9) #16
  call void @table_close(ptr noundef %5, i32 noundef 1) #16
  call void @llvm.lifetime.end.p0(i64 144, ptr nonnull %4) #16
  ret i32 %.0
}